target datalayout = "e-m:e-p270:32:32-p271:32:32-p272:64:64-i64:64-i128:128-f80:128-n8:16:32:64-S128"
target triple = "x86_64-pc-linux-gnu"

%struct.PS_Builder_FuncsRec_ = type { ptr, ptr }
%struct.FT_Vector_ = type { i64, i64 }
%struct.PS_Builder_ = type { ptr, ptr, ptr, ptr, ptr, ptr, ptr, ptr, ptr, ptr, ptr, i8, i8, i8, i8, i8, %struct.PS_Builder_FuncsRec_ }
%struct.FT_Outline_ = type { i16, i16, ptr, ptr, ptr, i32 }
%struct.FT_Matrix_ = type { i64, i64, i64, i64 }
%struct.FT_GlyphLoaderRec_ = type { ptr, i32, i32, i32, i8, %struct.FT_GlyphLoadRec_, %struct.FT_GlyphLoadRec_, ptr }
%struct.FT_GlyphLoadRec_ = type { %struct.FT_Outline_, ptr, ptr, i32, ptr }
%struct.PS_Decoder_ = type { %struct.PS_Builder_, [49 x i64], ptr, [17 x %struct.PS_Decoder_Zone_], ptr, i32, i32, [7 x %struct.FT_Vector_], ptr, ptr, ptr, ptr, i8, i32, i32, i32, i32, i32, ptr, ptr, ptr, i32, i32, i8, ptr, ptr, ptr, i32, ptr, ptr, %struct.FT_Matrix_, %struct.FT_Vector_, ptr, ptr, i32 }
%struct.PS_Decoder_Zone_ = type { ptr, ptr, ptr }
%struct.CF2_OutlineRec_ = type { %struct.CF2_OutlineCallbacksRec_, ptr }
%struct.CF2_OutlineCallbacksRec_ = type { ptr, ptr, ptr, ptr, i32, ptr, ptr }
%struct.CF2_CallbackParamsRec_ = type { %struct.FT_Vector_, %struct.FT_Vector_, %struct.FT_Vector_, %struct.FT_Vector_, i32 }

; Function Attrs: nounwind uwtable
define internal void @ps_builder_add_point(ptr noundef %0, i64 noundef %1, i64 noundef %2, i8 noundef zeroext %3) #0 {
  %5 = alloca ptr, align 8
  %6 = alloca i64, align 8
  %7 = alloca i64, align 8
  %8 = alloca i8, align 1
  %9 = alloca ptr, align 8
  %10 = alloca ptr, align 8
  %11 = alloca ptr, align 8
  store ptr %0, ptr %5, align 8
  store i64 %1, ptr %6, align 8
  store i64 %2, ptr %7, align 8
  store i8 %3, ptr %8, align 1
  %12 = load ptr, ptr %5, align 8
  %13 = getelementptr inbounds %struct.PS_Builder_, ptr %12, i32 0, i32 5
  %14 = load ptr, ptr %13, align 8
  store ptr %14, ptr %9, align 8
  %15 = load ptr, ptr %5, align 8
  %16 = getelementptr inbounds %struct.PS_Builder_, ptr %15, i32 0, i32 12
  %17 = load i8, ptr %16, align 1
  %18 = icmp ne i8 %17, 0
  br i1 %18, label %19, label %52

19:                                               ; preds = %4
  %20 = load ptr, ptr %9, align 8
  %21 = getelementptr inbounds %struct.FT_Outline_, ptr %20, i32 0, i32 2
  %22 = load ptr, ptr %21, align 8
  %23 = load ptr, ptr %9, align 8
  %24 = getelementptr inbounds %struct.FT_Outline_, ptr %23, i32 0, i32 1
  %25 = load i16, ptr %24, align 2
  %26 = zext i16 %25 to i32
  %27 = sext i32 %26 to i64
  %28 = getelementptr inbounds %struct.FT_Vector_, ptr %22, i64 %27
  store ptr %28, ptr %10, align 8
  %29 = load ptr, ptr %9, align 8
  %30 = getelementptr inbounds %struct.FT_Outline_, ptr %29, i32 0, i32 3
  %31 = load ptr, ptr %30, align 8
  %32 = load ptr, ptr %9, align 8
  %33 = getelementptr inbounds %struct.FT_Outline_, ptr %32, i32 0, i32 1
  %34 = load i16, ptr %33, align 2
  %35 = zext i16 %34 to i32
  %36 = sext i32 %35 to i64
  %37 = getelementptr inbounds i8, ptr %31, i64 %36
  store ptr %37, ptr %11, align 8
  %38 = load i64, ptr %6, align 8
  %39 = ashr i64 %38, 10
  %40 = load ptr, ptr %10, align 8
  %41 = getelementptr inbounds %struct.FT_Vector_, ptr %40, i32 0, i32 0
  store i64 %39, ptr %41, align 8
  %42 = load i64, ptr %7, align 8
  %43 = ashr i64 %42, 10
  %44 = load ptr, ptr %10, align 8
  %45 = getelementptr inbounds %struct.FT_Vector_, ptr %44, i32 0, i32 1
  store i64 %43, ptr %45, align 8
  %46 = load i8, ptr %8, align 1
  %47 = zext i8 %46 to i32
  %48 = icmp ne i32 %47, 0
  %49 = select i1 %48, i32 1, i32 2
  %50 = trunc i32 %49 to i8
  %51 = load ptr, ptr %11, align 8
  store i8 %50, ptr %51, align 1
  br label %52

52:                                               ; preds = %19, %4
  %53 = load ptr, ptr %9, align 8
  %54 = getelementptr inbounds %struct.FT_Outline_, ptr %53, i32 0, i32 1
  %55 = load i16, ptr %54, align 2
  %56 = add i16 %55, 1
  store i16 %56, ptr %54, align 2
  ret void
}

; Function Attrs: nounwind uwtable
define internal i32 @ps_builder_check_points(ptr noundef %0, i32 noundef %1) #0 {
  %3 = alloca ptr, align 8
  %4 = alloca i32, align 4
  store ptr %0, ptr %3, align 8
  store i32 %1, ptr %4, align 4
  %5 = load i32, ptr %4, align 4
  %6 = icmp eq i32 %5, 0
  br i1 %6, label %33, label %7

7:                                                ; preds = %2
  %8 = load ptr, ptr %3, align 8
  %9 = getelementptr inbounds %struct.PS_Builder_, ptr %8, i32 0, i32 3
  %10 = load ptr, ptr %9, align 8
  %11 = getelementptr inbounds %struct.FT_GlyphLoaderRec_, ptr %10, i32 0, i32 5
  %12 = getelementptr inbounds %struct.FT_GlyphLoadRec_, ptr %11, i32 0, i32 0
  %13 = getelementptr inbounds %struct.FT_Outline_, ptr %12, i32 0, i32 1
  %14 = load i16, ptr %13, align 2
  %15 = zext i16 %14 to i32
  %16 = load ptr, ptr %3, align 8
  %17 = getelementptr inbounds %struct.PS_Builder_, ptr %16, i32 0, i32 3
  %18 = load ptr, ptr %17, align 8
  %19 = getelementptr inbounds %struct.FT_GlyphLoaderRec_, ptr %18, i32 0, i32 6
  %20 = getelementptr inbounds %struct.FT_GlyphLoadRec_, ptr %19, i32 0, i32 0
  %21 = getelementptr inbounds %struct.FT_Outline_, ptr %20, i32 0, i32 1
  %22 = load i16, ptr %21, align 2
  %23 = zext i16 %22 to i32
  %24 = add i32 %15, %23
  %25 = load i32, ptr %4, align 4
  %26 = add i32 %24, %25
  %27 = load ptr, ptr %3, align 8
  %28 = getelementptr inbounds %struct.PS_Builder_, ptr %27, i32 0, i32 3
  %29 = load ptr, ptr %28, align 8
  %30 = getelementptr inbounds %struct.FT_GlyphLoaderRec_, ptr %29, i32 0, i32 1
  %31 = load i32, ptr %30, align 8
  %32 = icmp ule i32 %26, %31
  br i1 %32, label %33, label %34

33:                                               ; preds = %7, %2
  br label %40

34:                                               ; preds = %7
  %35 = load ptr, ptr %3, align 8
  %36 = getelementptr inbounds %struct.PS_Builder_, ptr %35, i32 0, i32 3
  %37 = load ptr, ptr %36, align 8
  %38 = load i32, ptr %4, align 4
  %39 = call i32 @FT_GlyphLoader_CheckPoints(ptr noundef %37, i32 noundef %38, i32 noundef 0)
  br label %40

40:                                               ; preds = %34, %33
  %41 = phi i32 [ 0, %33 ], [ %39, %34 ]
  ret i32 %41
}

; Function Attrs: nounwind uwtable
define internal void @cf2_builder_cubeTo(ptr noundef %0, ptr noundef %1) #0 {
  %3 = alloca ptr, align 8
  %4 = alloca ptr, align 8
  %5 = alloca i32, align 4
  %6 = alloca ptr, align 8
  %7 = alloca ptr, align 8
  store ptr %0, ptr %3, align 8
  store ptr %1, ptr %4, align 8
  %8 = load ptr, ptr %3, align 8
  store ptr %8, ptr %6, align 8
  br label %9

9:                                                ; preds = %2
  br label %10

10:                                               ; preds = %9
  br label %11

11:                                               ; preds = %10
  br label %12

12:                                               ; preds = %11
  %13 = load ptr, ptr %6, align 8
  %14 = getelementptr inbounds %struct.CF2_OutlineRec_, ptr %13, i32 0, i32 1
  %15 = load ptr, ptr %14, align 8
  %16 = getelementptr inbounds %struct.PS_Decoder_, ptr %15, i32 0, i32 0
  store ptr %16, ptr %7, align 8
  %17 = load ptr, ptr %7, align 8
  %18 = getelementptr inbounds %struct.PS_Builder_, ptr %17, i32 0, i32 11
  %19 = load i8, ptr %18, align 8
  %20 = icmp ne i8 %19, 0
  br i1 %20, label %47, label %21

21:                                               ; preds = %12
  %22 = load ptr, ptr %7, align 8
  %23 = load ptr, ptr %4, align 8
  %24 = getelementptr inbounds %struct.CF2_CallbackParamsRec_, ptr %23, i32 0, i32 0
  %25 = getelementptr inbounds %struct.FT_Vector_, ptr %24, i32 0, i32 0
  %26 = load i64, ptr %25, align 8
  %27 = load ptr, ptr %4, align 8
  %28 = getelementptr inbounds %struct.CF2_CallbackParamsRec_, ptr %27, i32 0, i32 0
  %29 = getelementptr inbounds %struct.FT_Vector_, ptr %28, i32 0, i32 1
  %30 = load i64, ptr %29, align 8
  %31 = call i32 @ps_builder_start_point(ptr noundef %22, i64 noundef %26, i64 noundef %30)
  store i32 %31, ptr %5, align 4
  %32 = load i32, ptr %5, align 4
  %33 = icmp ne i32 %32, 0
  br i1 %33, label %34, label %46

34:                                               ; preds = %21
  %35 = load ptr, ptr %3, align 8
  %36 = getelementptr inbounds %struct.CF2_OutlineCallbacksRec_, ptr %35, i32 0, i32 6
  %37 = load ptr, ptr %36, align 8
  %38 = load i32, ptr %37, align 4
  %39 = icmp ne i32 %38, 0
  br i1 %39, label %45, label %40

40:                                               ; preds = %34
  %41 = load i32, ptr %5, align 4
  %42 = load ptr, ptr %3, align 8
  %43 = getelementptr inbounds %struct.CF2_OutlineCallbacksRec_, ptr %42, i32 0, i32 6
  %44 = load ptr, ptr %43, align 8
  store i32 %41, ptr %44, align 4
  br label %45

45:                                               ; preds = %40, %34
  br label %92

46:                                               ; preds = %21
  br label %47

47:                                               ; preds = %46, %12
  %48 = load ptr, ptr %7, align 8
  %49 = call i32 @ps_builder_check_points(ptr noundef %48, i32 noundef 3)
  store i32 %49, ptr %5, align 4
  %50 = load i32, ptr %5, align 4
  %51 = icmp ne i32 %50, 0
  br i1 %51, label %52, label %64

52:                                               ; preds = %47
  %53 = load ptr, ptr %3, align 8
  %54 = getelementptr inbounds %struct.CF2_OutlineCallbacksRec_, ptr %53, i32 0, i32 6
  %55 = load ptr, ptr %54, align 8
  %56 = load i32, ptr %55, align 4
  %57 = icmp ne i32 %56, 0
  br i1 %57, label %63, label %58

58:                                               ; preds = %52
  %59 = load i32, ptr %5, align 4
  %60 = load ptr, ptr %3, align 8
  %61 = getelementptr inbounds %struct.CF2_OutlineCallbacksRec_, ptr %60, i32 0, i32 6
  %62 = load ptr, ptr %61, align 8
  store i32 %59, ptr %62, align 4
  br label %63

63:                                               ; preds = %58, %52
  br label %92

64:                                               ; preds = %47
  %65 = load ptr, ptr %7, align 8
  %66 = load ptr, ptr %4, align 8
  %67 = getelementptr inbounds %struct.CF2_CallbackParamsRec_, ptr %66, i32 0, i32 1
  %68 = getelementptr inbounds %struct.FT_Vector_, ptr %67, i32 0, i32 0
  %69 = load i64, ptr %68, align 8
  %70 = load ptr, ptr %4, align 8
  %71 = getelementptr inbounds %struct.CF2_CallbackParamsRec_, ptr %70, i32 0, i32 1
  %72 = getelementptr inbounds %struct.FT_Vector_, ptr %71, i32 0, i32 1
  %73 = load i64, ptr %72, align 8
  call void @ps_builder_add_point(ptr noundef %65, i64 noundef %69, i64 noundef %73, i8 noundef zeroext 0)
  %74 = load ptr, ptr %7, align 8
  %75 = load ptr, ptr %4, align 8
  %76 = getelementptr inbounds %struct.CF2_CallbackParamsRec_, ptr %75, i32 0, i32 2
  %77 = getelementptr inbounds %struct.FT_Vector_, ptr %76, i32 0, i32 0
  %78 = load i64, ptr %77, align 8
  %79 = load ptr, ptr %4, align 8
  %80 = getelementptr inbounds %struct.CF2_CallbackParamsRec_, ptr %79, i32 0, i32 2
  %81 = getelementptr inbounds %struct.FT_Vector_, ptr %80, i32 0, i32 1
  %82 = load i64, ptr %81, align 8
  call void @ps_builder_add_point(ptr noundef %74, i64 noundef %78, i64 noundef %82, i8 noundef zeroext 0)
  %83 = load ptr, ptr %7, align 8
  %84 = load ptr, ptr %4, align 8
  %85 = getelementptr inbounds %struct.CF2_CallbackParamsRec_, ptr %84, i32 0, i32 3
  %86 = getelementptr inbounds %struct.FT_Vector_, ptr %85, i32 0, i32 0
  %87 = load i64, ptr %86, align 8
  %88 = load ptr, ptr %4, align 8
  %89 = getelementptr inbounds %struct.CF2_CallbackParamsRec_, ptr %88, i32 0, i32 3
  %90 = getelementptr inbounds %struct.FT_Vector_, ptr %89, i32 0, i32 1
  %91 = load i64, ptr %90, align 8
  call void @ps_builder_add_point(ptr noundef %83, i64 noundef %87, i64 noundef %91, i8 noundef zeroext 1)
  br label %92

92:                                               ; preds = %64, %63, %45
  ret void
}