; Function Attrs: nounwind uwtable
define internal void @cf2_builder_cubeTo(ptr noundef readonly captures(none) %0, ptr noundef readonly captures(none) %1) #0 {
  %3 = getelementptr inbounds nuw i8, ptr %0, i64 56
  %4 = load ptr, ptr %3, align 8
  %5 = getelementptr inbounds nuw i8, ptr %4, i64 88
  %6 = load i8, ptr %5, align 8
  %.not = icmp eq i8 %6, 0
  br i1 %.not, label %7, label %17

7:                                                ; preds = %2
  %8 = load i64, ptr %1, align 8
  %9 = getelementptr inbounds nuw i8, ptr %1, i64 8
  %10 = load i64, ptr %9, align 8
  %11 = tail call fastcc i32 @ps_builder_start_point(ptr noundef nonnull %4, i64 noundef %8, i64 noundef %10)
  %.not24 = icmp eq i32 %11, 0
  br i1 %.not24, label %17, label %12

12:                                               ; preds = %7
  %13 = getelementptr inbounds nuw i8, ptr %0, i64 48
  %14 = load ptr, ptr %13, align 8
  %15 = load i32, ptr %14, align 4
  %.not25 = icmp eq i32 %15, 0
  br i1 %.not25, label %16, label %97

16:                                               ; preds = %12
  store i32 %11, ptr %14, align 4
  br label %97

17:                                               ; preds = %7, %2
  %18 = getelementptr i8, ptr %4, i64 24
  %.val = load ptr, ptr %18, align 8
  %19 = getelementptr inbounds nuw i8, ptr %.val, i64 26
  %20 = load i16, ptr %19, align 2
  %21 = zext i16 %20 to i32
  %22 = getelementptr inbounds nuw i8, ptr %.val, i64 98
  %23 = load i16, ptr %22, align 2
  %24 = zext i16 %23 to i32
  %25 = add nuw nsw i32 %21, 3
  %26 = add nuw nsw i32 %25, %24
  %27 = getelementptr inbounds nuw i8, ptr %.val, i64 8
  %28 = load i32, ptr %27, align 8
  %.not.i = icmp ugt i32 %26, %28
  br i1 %.not.i, label %ps_builder_check_points.exit, label %ps_builder_check_points.exit.thread

ps_builder_check_points.exit:                     ; preds = %17
  %29 = tail call i32 @FT_GlyphLoader_CheckPoints(ptr noundef nonnull %.val, i32 noundef 3, i32 noundef 0) #20
  %.not26 = icmp eq i32 %29, 0
  br i1 %.not26, label %ps_builder_check_points.exit.thread, label %30

30:                                               ; preds = %ps_builder_check_points.exit
  %31 = getelementptr inbounds nuw i8, ptr %0, i64 48
  %32 = load ptr, ptr %31, align 8
  %33 = load i32, ptr %32, align 4
  %.not27 = icmp eq i32 %33, 0
  br i1 %.not27, label %34, label %97

34:                                               ; preds = %30
  store i32 %29, ptr %32, align 4
  br label %97

ps_builder_check_points.exit.thread:              ; preds = %17, %ps_builder_check_points.exit
  %35 = getelementptr i8, ptr %4, i64 40
  %.val28 = load ptr, ptr %35, align 8
  %36 = getelementptr i8, ptr %4, i64 89
  %.val29 = load i8, ptr %36, align 1
  %.not.i34 = icmp eq i8 %.val29, 0
  br i1 %.not.i34, label %ps_builder_add_point.exit, label %37

37:                                               ; preds = %ps_builder_check_points.exit.thread
  %38 = getelementptr inbounds nuw i8, ptr %1, i64 24
  %39 = load i64, ptr %38, align 8
  %40 = getelementptr inbounds nuw i8, ptr %1, i64 16
  %41 = load i64, ptr %40, align 8
  %42 = getelementptr inbounds nuw i8, ptr %.val28, i64 8
  %43 = load ptr, ptr %42, align 8
  %44 = getelementptr inbounds nuw i8, ptr %.val28, i64 2
  %45 = load i16, ptr %44, align 2
  %46 = zext i16 %45 to i64
  %47 = getelementptr inbounds nuw %struct.FT_Vector_, ptr %43, i64 %46
  %48 = getelementptr inbounds nuw i8, ptr %.val28, i64 16
  %49 = load ptr, ptr %48, align 8
  %50 = getelementptr inbounds nuw i8, ptr %49, i64 %46
  %51 = ashr i64 %41, 10
  store i64 %51, ptr %47, align 8
  %52 = ashr i64 %39, 10
  %53 = getelementptr inbounds nuw i8, ptr %47, i64 8
  store i64 %52, ptr %53, align 8
  store i8 2, ptr %50, align 1
  br label %ps_builder_add_point.exit

ps_builder_add_point.exit:                        ; preds = %ps_builder_check_points.exit.thread, %37
  %54 = getelementptr inbounds nuw i8, ptr %.val28, i64 2
  %55 = load i16, ptr %54, align 2
  %56 = add i16 %55, 1
  store i16 %56, ptr %54, align 2
  %.val30 = load ptr, ptr %35, align 8
  %.val31 = load i8, ptr %36, align 1
  %.not.i35 = icmp eq i8 %.val31, 0
  br i1 %.not.i35, label %ps_builder_add_point.exit36, label %57

57:                                               ; preds = %ps_builder_add_point.exit
  %58 = getelementptr inbounds nuw i8, ptr %1, i64 40
  %59 = load i64, ptr %58, align 8
  %60 = getelementptr inbounds nuw i8, ptr %1, i64 32
  %61 = load i64, ptr %60, align 8
  %62 = getelementptr inbounds nuw i8, ptr %.val30, i64 8
  %63 = load ptr, ptr %62, align 8
  %64 = getelementptr inbounds nuw i8, ptr %.val30, i64 2
  %65 = load i16, ptr %64, align 2
  %66 = zext i16 %65 to i64
  %67 = getelementptr inbounds nuw %struct.FT_Vector_, ptr %63, i64 %66
  %68 = getelementptr inbounds nuw i8, ptr %.val30, i64 16
  %69 = load ptr, ptr %68, align 8
  %70 = getelementptr inbounds nuw i8, ptr %69, i64 %66
  %71 = ashr i64 %61, 10
  store i64 %71, ptr %67, align 8
  %72 = ashr i64 %59, 10
  %73 = getelementptr inbounds nuw i8, ptr %67, i64 8
  store i64 %72, ptr %73, align 8
  store i8 2, ptr %70, align 1
  br label %ps_builder_add_point.exit36

ps_builder_add_point.exit36:                      ; preds = %ps_builder_add_point.exit, %57
  %74 = getelementptr inbounds nuw i8, ptr %.val30, i64 2
  %75 = load i16, ptr %74, align 2
  %76 = add i16 %75, 1
  store i16 %76, ptr %74, align 2
  %.val32 = load ptr, ptr %35, align 8
  %.val33 = load i8, ptr %36, align 1
  %.not.i37 = icmp eq i8 %.val33, 0
  br i1 %.not.i37, label %ps_builder_add_point.exit38, label %77

77:                                               ; preds = %ps_builder_add_point.exit36
  %78 = getelementptr inbounds nuw i8, ptr %1, i64 56
  %79 = load i64, ptr %78, align 8
  %80 = getelementptr inbounds nuw i8, ptr %1, i64 48
  %81 = load i64, ptr %80, align 8
  %82 = getelementptr inbounds nuw i8, ptr %.val32, i64 8
  %83 = load ptr, ptr %82, align 8
  %84 = getelementptr inbounds nuw i8, ptr %.val32, i64 2
  %85 = load i16, ptr %84, align 2
  %86 = zext i16 %85 to i64
  %87 = getelementptr inbounds nuw %struct.FT_Vector_, ptr %83, i64 %86
  %88 = getelementptr inbounds nuw i8, ptr %.val32, i64 16
  %89 = load ptr, ptr %88, align 8
  %90 = getelementptr inbounds nuw i8, ptr %89, i64 %86
  %91 = ashr i64 %81, 10
  store i64 %91, ptr %87, align 8
  %92 = ashr i64 %79, 10
  %93 = getelementptr inbounds nuw i8, ptr %87, i64 8
  store i64 %92, ptr %93, align 8
  store i8 1, ptr %90, align 1
  br label %ps_builder_add_point.exit38

ps_builder_add_point.exit38:                      ; preds = %ps_builder_add_point.exit36, %77
  %94 = getelementptr inbounds nuw i8, ptr %.val32, i64 2
  %95 = load i16, ptr %94, align 2
  %96 = add i16 %95, 1
  store i16 %96, ptr %94, align 2
  br label %97

97:                                               ; preds = %30, %34, %12, %16, %ps_builder_add_point.exit38
  ret void
}